target datalayout = "e-m:e-p270:32:32-p271:32:32-p272:64:64-i64:64-i128:128-f80:128-n8:16:32:64-S128"
target triple = "x86_64-pc-linux-gnu"

%struct.ldbState = type { ptr, i32, i32, ptr, ptr, ptr, [64 x i32], i32, i32, i32, ptr, i32, i32, ptr, i64, i32 }

@ldb = dso_local global %struct.ldbState zeroinitializer, align 8
@.str.135 = private unnamed_addr constant [43 x i8] c"<value> replies are truncated at %d bytes.\00", align 1
@.str.136 = private unnamed_addr constant [31 x i8] c"<value> replies are unlimited.\00", align 1

; Function Attrs: nounwind uwtable
define dso_local void @ldbLog(ptr noundef %0) #0 {
  %2 = alloca ptr, align 8
  store ptr %0, ptr %2, align 8, !tbaa !16
  %3 = load ptr, ptr getelementptr inbounds nuw (%struct.ldbState, ptr @ldb, i32 0, i32 3), align 8, !tbaa !34
  %4 = load ptr, ptr %2, align 8, !tbaa !16
  %5 = call ptr @listAddNodeTail(ptr noundef %3, ptr noundef %4)
  ret void
}

; Function Attrs: inlinehint nounwind willreturn memory(read) uwtable
define available_externally i32 @atoi(ptr noundef nonnull %0) #11 {
  %2 = alloca ptr, align 8
  store ptr %0, ptr %2, align 8, !tbaa !16
  %3 = load ptr, ptr %2, align 8, !tbaa !16
  %4 = call i64 @strtol(ptr noundef %3, ptr noundef null, i32 noundef 10) #14
  %5 = trunc i64 %4 to i32
  ret i32 %5
}

; Function Attrs: nounwind uwtable
define dso_local void @ldbMaxlen(ptr noundef %0, i32 noundef %1) #0 {
  %3 = alloca ptr, align 8
  %4 = alloca i32, align 4
  %5 = alloca i32, align 4
  store ptr %0, ptr %3, align 8, !tbaa !100
  store i32 %1, ptr %4, align 4, !tbaa !19
  %6 = load i32, ptr %4, align 4, !tbaa !19
  %7 = icmp eq i32 %6, 2
  br i1 %7, label %8, label %22

8:                                                ; preds = %2
  call void @llvm.lifetime.start.p0(i64 4, ptr %5) #14
  %9 = load ptr, ptr %3, align 8, !tbaa !100
  %10 = getelementptr inbounds ptr, ptr %9, i64 1
  %11 = load ptr, ptr %10, align 8, !tbaa !16
  %12 = call i32 @atoi(ptr noundef %11) #13
  store i32 %12, ptr %5, align 4, !tbaa !19
  store i32 1, ptr getelementptr inbounds nuw (%struct.ldbState, ptr @ldb, i32 0, i32 15), align 8, !tbaa !155
  %13 = load i32, ptr %5, align 4, !tbaa !19
  %14 = icmp ne i32 %13, 0
  br i1 %14, label %15, label %19

15:                                               ; preds = %8
  %16 = load i32, ptr %5, align 4, !tbaa !19
  %17 = icmp sle i32 %16, 60
  br i1 %17, label %18, label %19

18:                                               ; preds = %15
  store i32 60, ptr %5, align 4, !tbaa !19
  br label %19

19:                                               ; preds = %18, %15, %8
  %20 = load i32, ptr %5, align 4, !tbaa !19
  %21 = sext i32 %20 to i64
  store i64 %21, ptr getelementptr inbounds nuw (%struct.ldbState, ptr @ldb, i32 0, i32 14), align 8, !tbaa !154
  call void @llvm.lifetime.end.p0(i64 4, ptr %5) #14
  br label %22

22:                                               ; preds = %19, %2
  %23 = load i64, ptr getelementptr inbounds nuw (%struct.ldbState, ptr @ldb, i32 0, i32 14), align 8, !tbaa !154
  %24 = icmp ne i64 %23, 0
  br i1 %24, label %25, label %30

25:                                               ; preds = %22
  %26 = call ptr @sdsempty()
  %27 = load i64, ptr getelementptr inbounds nuw (%struct.ldbState, ptr @ldb, i32 0, i32 14), align 8, !tbaa !154
  %28 = trunc i64 %27 to i32
  %29 = call ptr (ptr, ptr, ...) @sdscatprintf(ptr noundef %26, ptr noundef @.str.135, i32 noundef %28)
  call void @ldbLog(ptr noundef %29)
  br label %33

30:                                               ; preds = %22
  %31 = call ptr @sdsempty()
  %32 = call ptr (ptr, ptr, ...) @sdscatprintf(ptr noundef %31, ptr noundef @.str.136)
  call void @ldbLog(ptr noundef %32)
  br label %33

33:                                               ; preds = %30, %25
  ret void
}