; Function Attrs: nounwind uwtable
define dso_local void @ldbMaxlen(ptr noundef readonly captures(none) %0, i32 noundef %1) local_unnamed_addr #0 {
  %3 = icmp eq i32 %1, 2
  br i1 %3, label %4, label %thread-pre-split

4:                                                ; preds = %2
  %5 = getelementptr inbounds nuw i8, ptr %0, i64 8
  %6 = load ptr, ptr %5, align 8, !tbaa !92
  %7 = tail call i64 @strtol(ptr noundef nonnull captures(none) %6, ptr noundef null, i32 noundef 10) #19
  %8 = trunc i64 %7 to i32
  store i32 1, ptr getelementptr inbounds nuw (i8, ptr @ldb, i64 344), align 8, !tbaa !142
  %9 = icmp ne i32 %8, 0
  %10 = icmp slt i32 %8, 61
  %or.cond = and i1 %9, %10
  %sext = shl i64 %7, 32
  %11 = ashr exact i64 %sext, 32
  %12 = select i1 %or.cond, i64 60, i64 %11
  store i64 %12, ptr getelementptr inbounds nuw (i8, ptr @ldb, i64 336), align 8, !tbaa !141
  br label %13

thread-pre-split:                                 ; preds = %2
  %.pr = load i64, ptr getelementptr inbounds nuw (i8, ptr @ldb, i64 336), align 8, !tbaa !141
  br label %13

13:                                               ; preds = %thread-pre-split, %4
  %14 = phi i64 [ %.pr, %thread-pre-split ], [ %12, %4 ]
  %.not = icmp eq i64 %14, 0
  %15 = tail call ptr @sdsempty() #19
  br i1 %.not, label %20, label %16

16:                                               ; preds = %13
  %17 = load i64, ptr getelementptr inbounds nuw (i8, ptr @ldb, i64 336), align 8, !tbaa !141
  %18 = trunc i64 %17 to i32
  %19 = tail call ptr (ptr, ptr, ...) @sdscatprintf(ptr noundef %15, ptr noundef nonnull @.str.135, i32 noundef %18) #19
  br label %22

20:                                               ; preds = %13
  %21 = tail call ptr (ptr, ptr, ...) @sdscatprintf(ptr noundef %15, ptr noundef nonnull @.str.136) #19
  br label %22

22:                                               ; preds = %20, %16
  %.sink5 = phi ptr [ %21, %20 ], [ %19, %16 ]
  %23 = load ptr, ptr getelementptr inbounds nuw (i8, ptr @ldb, i64 16), align 8, !tbaa !26
  %24 = tail call ptr @listAddNodeTail(ptr noundef %23, ptr noundef %.sink5) #19
  ret void
}